ccopy_reg
_reconstructor
p0
(cweb.utils
Storage
p1
c__builtin__
dict
p2
(dp3
S'perpage_post'
p4
I30
sS'freeurl_password'
p5
V
p6
sS'reg_invite'
p7
S''
p8
sS'smtp_password'
p9
V123456
p10
sS'freeurl_domain'
p11
V1f1w.com
p12
sS'perpage_list'
p13
I50
sS'freeurl_open'
p14
g8
sS'freeurl_port'
p15
S'124'
p16
sS'freeurl_username'
p17
g6
sS'group'
p18
g0
(g1
g2
(dp19
S'g4'
p20
g0
(g1
g2
(dp21
S'downattach'
p22
S'on'
p23
sS'upattach'
p24
g23
sS'post'
p25
g23
sS'seccode'
p26
g8
sS'visit'
p27
g23
sS'view'
p28
g23
stp29
Rp30
sS'g2'
p31
g0
(g1
g2
(dp32
g22
Von
p33
sg27
Von
p34
sg25
Von
p35
sg26
g8
sg24
Von
p36
sg28
Von
p37
stp38
Rp39
sS'g1'
p40
g0
(g1
g2
(dp41
g22
Von
p42
sg27
Von
p43
sg25
Von
p44
sg26
Von
p45
sg24
Von
p46
sg28
Von
p47
stp48
Rp49
sS'g0'
p50
g0
(g1
g2
(dp51
g22
Von
p52
sg27
Von
p53
sg25
Von
p54
sg26
Von
p55
sg24
g8
sg28
Von
p56
stp57
Rp58
stp59
Rp60
sS'smtp_port'
p61
I587
sS'freeurl_posturl'
p62
Vhttp://wz.1f1w.com/post/
p63
sS'chat_open'
p64
V1
p65
sS'reg_email'
p66
g8
sS'sitename'
p67
V\u4e00\u82b1\u4e00\u4e16\u754c
p68
sS'charset'
p69
S'utf-8'
p70
sS'smtp_server'
p71
Vsmtp.gmail.com
p72
sS'authcode_open'
p73
V1
p74
sS'version'
p75
S'2011.3.3'
p76
sS'reg_open'
p77
Von
p78
sS'reg_seccode'
p79
Von
p80
sS'smtp_username'
p81
Vabc@gmail.com
p82
sS'usercount'
p83
I0
stp84
Rp85
.